target datalayout = "e-m:e-p270:32:32-p271:32:32-p272:64:64-i64:64-i128:128-f80:128-n8:16:32:64-S128"
target triple = "x86_64-pc-linux-gnu"

%struct._GList = type { ptr, ptr, ptr }
%struct.PageCounters = type { i64, i32, i32, i64, i64 }
%struct._GString = type { ptr, i64, i64 }

@pages = internal global ptr null, align 8
@.str.10 = private unnamed_addr constant [35 x i8] c"Addr, RCPUs, Reads, WCPUs, Writes\0A\00", align 1
@limit = internal global i32 50, align 4
@.str.11 = private unnamed_addr constant [36 x i8] c"0x%016lx, 0x%04x, %ld, 0x%04x, %ld\0A\00", align 1

; Function Attrs: inlinehint nounwind sspstrong uwtable
define internal void @g_autoptr_cleanup_gstring_free(ptr noundef %0) #3 {
  %2 = alloca ptr, align 8
  store ptr %0, ptr %2, align 8
  %3 = load ptr, ptr %2, align 8
  %4 = icmp ne ptr %3, null
  br i1 %4, label %5, label %8

5:                                                ; preds = %1
  %6 = load ptr, ptr %2, align 8
  %7 = call ptr @g_string_free(ptr noundef %6, i32 noundef 1)
  br label %8

8:                                                ; preds = %5, %1
  ret void
}

; Function Attrs: inlinehint nounwind sspstrong uwtable
define internal void @glib_autoptr_clear_GString(ptr noundef %0) #3 {
  %2 = alloca ptr, align 8
  store ptr %0, ptr %2, align 8
  %3 = load ptr, ptr %2, align 8
  %4 = icmp ne ptr %3, null
  br i1 %4, label %5, label %7

5:                                                ; preds = %1
  %6 = load ptr, ptr %2, align 8
  call void @g_autoptr_cleanup_gstring_free(ptr noundef %6)
  br label %7

7:                                                ; preds = %5, %1
  ret void
}

; Function Attrs: inlinehint nounwind sspstrong uwtable
define internal void @glib_autoptr_cleanup_GString(ptr noundef %0) #3 {
  %2 = alloca ptr, align 8
  store ptr %0, ptr %2, align 8
  %3 = load ptr, ptr %2, align 8
  %4 = load ptr, ptr %3, align 8
  call void @glib_autoptr_clear_GString(ptr noundef %4)
  ret void
}

; Function Attrs: nounwind sspstrong uwtable
define internal void @plugin_exit(i64 noundef %0, ptr noundef %1) #0 {
  %3 = alloca i64, align 8
  %4 = alloca ptr, align 8
  %5 = alloca ptr, align 8
  %6 = alloca i32, align 4
  %7 = alloca ptr, align 8
  %8 = alloca ptr, align 8
  %9 = alloca ptr, align 8
  store i64 %0, ptr %3, align 8
  store ptr %1, ptr %4, align 8
  call void @llvm.lifetime.start.p0(i64 8, ptr %5) #9
  %10 = call ptr @g_string_new(ptr noundef @.str.10)
  store ptr %10, ptr %5, align 8
  call void @llvm.lifetime.start.p0(i64 4, ptr %6) #9
  store i32 0, ptr %6, align 4, !annotation !3
  call void @llvm.lifetime.start.p0(i64 8, ptr %7) #9
  store ptr null, ptr %7, align 8, !annotation !3
  %11 = load ptr, ptr @pages, align 8
  %12 = call ptr @g_hash_table_get_values(ptr noundef %11)
  store ptr %12, ptr %7, align 8
  %13 = load ptr, ptr %7, align 8
  %14 = icmp ne ptr %13, null
  br i1 %14, label %15, label %66

15:                                               ; preds = %2
  %16 = load ptr, ptr %7, align 8
  %17 = icmp ne ptr %16, null
  br i1 %17, label %18, label %23

18:                                               ; preds = %15
  %19 = load ptr, ptr %7, align 8
  %20 = getelementptr inbounds nuw %struct._GList, ptr %19, i32 0, i32 1
  %21 = load ptr, ptr %20, align 8
  %22 = icmp ne ptr %21, null
  br i1 %22, label %24, label %66

23:                                               ; preds = %15
  br i1 false, label %24, label %66

24:                                               ; preds = %23, %18
  call void @llvm.lifetime.start.p0(i64 8, ptr %8) #9
  store ptr null, ptr %8, align 8, !annotation !3
  %25 = load ptr, ptr %7, align 8
  %26 = call ptr @g_list_sort(ptr noundef %25, ptr noundef @cmp_access_count)
  store ptr %26, ptr %8, align 8
  store i32 0, ptr %6, align 4
  br label %27

27:                                               ; preds = %58, %24
  %28 = load i32, ptr %6, align 4
  %29 = load i32, ptr @limit, align 4
  %30 = icmp slt i32 %28, %29
  br i1 %30, label %31, label %36

31:                                               ; preds = %27
  %32 = load ptr, ptr %8, align 8
  %33 = getelementptr inbounds nuw %struct._GList, ptr %32, i32 0, i32 1
  %34 = load ptr, ptr %33, align 8
  %35 = icmp ne ptr %34, null
  br label %36

36:                                               ; preds = %31, %27
  %37 = phi i1 [ false, %27 ], [ %35, %31 ]
  br i1 %37, label %38, label %64

38:                                               ; preds = %36
  call void @llvm.lifetime.start.p0(i64 8, ptr %9) #9
  %39 = load ptr, ptr %8, align 8
  %40 = getelementptr inbounds nuw %struct._GList, ptr %39, i32 0, i32 0
  %41 = load ptr, ptr %40, align 8
  store ptr %41, ptr %9, align 8
  %42 = load ptr, ptr %5, align 8
  %43 = load ptr, ptr %9, align 8
  %44 = getelementptr inbounds nuw %struct.PageCounters, ptr %43, i32 0, i32 0
  %45 = load i64, ptr %44, align 8
  %46 = load ptr, ptr %9, align 8
  %47 = getelementptr inbounds nuw %struct.PageCounters, ptr %46, i32 0, i32 1
  %48 = load i32, ptr %47, align 8
  %49 = load ptr, ptr %9, align 8
  %50 = getelementptr inbounds nuw %struct.PageCounters, ptr %49, i32 0, i32 3
  %51 = load i64, ptr %50, align 8
  %52 = load ptr, ptr %9, align 8
  %53 = getelementptr inbounds nuw %struct.PageCounters, ptr %52, i32 0, i32 2
  %54 = load i32, ptr %53, align 4
  %55 = load ptr, ptr %9, align 8
  %56 = getelementptr inbounds nuw %struct.PageCounters, ptr %55, i32 0, i32 4
  %57 = load i64, ptr %56, align 8
  call void (ptr, ptr, ...) @g_string_append_printf(ptr noundef %42, ptr noundef @.str.11, i64 noundef %45, i32 noundef %48, i64 noundef %51, i32 noundef %54, i64 noundef %57)
  call void @llvm.lifetime.end.p0(i64 8, ptr %9) #9
  br label %58

58:                                               ; preds = %38
  %59 = load i32, ptr %6, align 4
  %60 = add i32 %59, 1
  store i32 %60, ptr %6, align 4
  %61 = load ptr, ptr %8, align 8
  %62 = getelementptr inbounds nuw %struct._GList, ptr %61, i32 0, i32 1
  %63 = load ptr, ptr %62, align 8
  store ptr %63, ptr %8, align 8
  br label %27, !llvm.loop !7

64:                                               ; preds = %36
  %65 = load ptr, ptr %8, align 8
  call void @g_list_free(ptr noundef %65)
  call void @llvm.lifetime.end.p0(i64 8, ptr %8) #9
  br label %66

66:                                               ; preds = %64, %23, %18, %2
  %67 = load ptr, ptr %5, align 8
  %68 = getelementptr inbounds nuw %struct._GString, ptr %67, i32 0, i32 0
  %69 = load ptr, ptr %68, align 8
  call void @qemu_plugin_outs(ptr noundef %69)
  call void @llvm.lifetime.end.p0(i64 8, ptr %7) #9
  call void @llvm.lifetime.end.p0(i64 4, ptr %6) #9
  call void @glib_autoptr_cleanup_GString(ptr noundef %5)
  call void @llvm.lifetime.end.p0(i64 8, ptr %5) #9
  ret void
}