; Function Attrs: nounwind sspstrong uwtable
define internal void @plugin_exit(i64 %0, ptr readnone captures(none) %1) #0 {
  %3 = tail call ptr @g_string_new(ptr noundef nonnull @.str.10) #6
  %4 = load ptr, ptr @pages, align 8
  %5 = tail call ptr @g_hash_table_get_values(ptr noundef %4) #6
  %.not = icmp eq ptr %5, null
  br i1 %.not, label %glib_autoptr_cleanup_GString.exit, label %6

6:                                                ; preds = %2
  %7 = getelementptr inbounds nuw i8, ptr %5, i64 8
  %8 = load ptr, ptr %7, align 8
  %.not17 = icmp eq ptr %8, null
  br i1 %.not17, label %glib_autoptr_cleanup_GString.exit, label %9

9:                                                ; preds = %6
  %10 = tail call ptr @g_list_sort(ptr noundef nonnull %5, ptr noundef nonnull @cmp_access_count) #6
  br label %11

11:                                               ; preds = %9, %14
  %.021 = phi i32 [ 0, %9 ], [ %25, %14 ]
  %.01520 = phi ptr [ %10, %9 ], [ %26, %14 ]
  %12 = getelementptr inbounds nuw i8, ptr %.01520, i64 8
  %13 = load ptr, ptr %12, align 8
  %.not18 = icmp eq ptr %13, null
  br i1 %.not18, label %.critedge, label %14

14:                                               ; preds = %11
  %15 = load ptr, ptr %.01520, align 8
  %16 = load i64, ptr %15, align 8
  %17 = getelementptr inbounds nuw i8, ptr %15, i64 8
  %18 = load i32, ptr %17, align 8
  %19 = getelementptr inbounds nuw i8, ptr %15, i64 16
  %20 = load i64, ptr %19, align 8
  %21 = getelementptr inbounds nuw i8, ptr %15, i64 12
  %22 = load i32, ptr %21, align 4
  %23 = getelementptr inbounds nuw i8, ptr %15, i64 24
  %24 = load i64, ptr %23, align 8
  tail call void (ptr, ptr, ...) @g_string_append_printf(ptr noundef %3, ptr noundef nonnull @.str.11, i64 noundef %16, i32 noundef %18, i64 noundef %20, i32 noundef %22, i64 noundef %24) #6
  %25 = add nuw nsw i32 %.021, 1
  %26 = load ptr, ptr %12, align 8
  %exitcond.not = icmp eq i32 %25, 50
  br i1 %exitcond.not, label %.critedge, label %11, !llvm.loop !6

.critedge:                                        ; preds = %14, %11
  %.015.lcssa = phi ptr [ %26, %14 ], [ %.01520, %11 ]
  tail call void @g_list_free(ptr noundef %.015.lcssa) #6
  br label %glib_autoptr_cleanup_GString.exit

glib_autoptr_cleanup_GString.exit:                ; preds = %.critedge, %6, %2
  %27 = load ptr, ptr %3, align 8
  tail call void @qemu_plugin_outs(ptr noundef %27) #6
  %28 = tail call ptr @g_string_free(ptr noundef nonnull %3, i32 noundef 1) #6
  ret void
}